target datalayout = "e-m:e-p270:32:32-p271:32:32-p272:64:64-i64:64-i128:128-f80:128-n8:16:32:64-S128"
target triple = "x86_64-pc-linux-gnu"

%struct.AVFilterContext = type { ptr, ptr, ptr, ptr, ptr, i32, ptr, ptr, i32, ptr, ptr, i32, i32, ptr, ptr, ptr, ptr, i32, ptr, i32, i32 }
%struct.GrayWorldContext = type { ptr, ptr, ptr }
%struct.ThreadData = type { ptr, ptr, float, float, float }
%struct.AVFilterLink = type { ptr, ptr, ptr, ptr, i32, i32, i32, i32, %struct.AVRational, i32, i32, i32, %struct.AVChannelLayout, %struct.AVRational, ptr, i32, %struct.AVFilterFormatsConfig, %struct.AVFilterFormatsConfig }
%struct.AVChannelLayout = type { i32, i32, %union.anon.1, ptr }
%union.anon.1 = type { i64 }
%struct.AVRational = type { i32, i32 }
%struct.AVFilterFormatsConfig = type { ptr, ptr, ptr, ptr, ptr }
%struct.AVFrame = type { [8 x ptr], [8 x i32], ptr, i32, i32, i32, i32, i32, %struct.AVRational, i64, i64, %struct.AVRational, i32, ptr, i32, i32, [8 x ptr], ptr, i32, ptr, i32, i32, i32, i32, i32, i32, i32, i64, ptr, i32, ptr, ptr, i64, i64, i64, i64, ptr, %struct.AVChannelLayout, i64 }

@.str.3 = private unnamed_addr constant [43 x i8] c"Untagged transfer, assuming linear light.\0A\00", align 1
@.str.4 = private unnamed_addr constant [57 x i8] c"Gray world color correction works on linear light only.\0A\00", align 1

; Function Attrs: nounwind uwtable
define internal void @compute_correction(ptr noundef %0, ptr noundef %1) #1 {
  %3 = alloca ptr, align 8
  %4 = alloca ptr, align 8
  %5 = alloca float, align 4
  %6 = alloca float, align 4
  %7 = alloca i32, align 4
  %8 = alloca i32, align 4
  store ptr %0, ptr %3, align 8, !tbaa !22
  store ptr %1, ptr %4, align 8, !tbaa !58
  call void @llvm.lifetime.start.p0(i64 4, ptr %5) #6
  store float 0.000000e+00, ptr %5, align 4, !tbaa !62
  call void @llvm.lifetime.start.p0(i64 4, ptr %6) #6
  store float 0.000000e+00, ptr %6, align 4, !tbaa !62
  call void @llvm.lifetime.start.p0(i64 4, ptr %7) #6
  store i32 0, ptr %7, align 4, !tbaa !50
  call void @llvm.lifetime.start.p0(i64 4, ptr %8) #6
  store i32 0, ptr %8, align 4, !tbaa !50
  br label %9

9:                                                ; preds = %52, %2
  %10 = load i32, ptr %8, align 4, !tbaa !50
  %11 = load ptr, ptr %4, align 8, !tbaa !58
  %12 = getelementptr inbounds nuw %struct.ThreadData, ptr %11, i32 0, i32 1
  %13 = load ptr, ptr %12, align 8, !tbaa !48
  %14 = getelementptr inbounds nuw %struct.AVFrame, ptr %13, i32 0, i32 4
  %15 = load i32, ptr %14, align 4, !tbaa !60
  %16 = icmp slt i32 %10, %15
  br i1 %16, label %18, label %17

17:                                               ; preds = %9
  call void @llvm.lifetime.end.p0(i64 4, ptr %8) #6
  br label %55

18:                                               ; preds = %9
  %19 = load ptr, ptr %3, align 8, !tbaa !22
  %20 = getelementptr inbounds nuw %struct.GrayWorldContext, ptr %19, i32 0, i32 2
  %21 = load ptr, ptr %20, align 8, !tbaa !56
  %22 = load i32, ptr %8, align 4, !tbaa !50
  %23 = sext i32 %22 to i64
  %24 = getelementptr inbounds float, ptr %21, i64 %23
  %25 = load float, ptr %24, align 4, !tbaa !62
  %26 = load float, ptr %5, align 4, !tbaa !62
  %27 = fadd nsz float %26, %25
  store float %27, ptr %5, align 4, !tbaa !62
  %28 = load ptr, ptr %3, align 8, !tbaa !22
  %29 = getelementptr inbounds nuw %struct.GrayWorldContext, ptr %28, i32 0, i32 2
  %30 = load ptr, ptr %29, align 8, !tbaa !56
  %31 = load i32, ptr %8, align 4, !tbaa !50
  %32 = load ptr, ptr %4, align 8, !tbaa !58
  %33 = getelementptr inbounds nuw %struct.ThreadData, ptr %32, i32 0, i32 1
  %34 = load ptr, ptr %33, align 8, !tbaa !48
  %35 = getelementptr inbounds nuw %struct.AVFrame, ptr %34, i32 0, i32 4
  %36 = load i32, ptr %35, align 4, !tbaa !60
  %37 = add nsw i32 %31, %36
  %38 = sext i32 %37 to i64
  %39 = getelementptr inbounds float, ptr %30, i64 %38
  %40 = load float, ptr %39, align 4, !tbaa !62
  %41 = load float, ptr %6, align 4, !tbaa !62
  %42 = fadd nsz float %41, %40
  store float %42, ptr %6, align 4, !tbaa !62
  %43 = load ptr, ptr %3, align 8, !tbaa !22
  %44 = getelementptr inbounds nuw %struct.GrayWorldContext, ptr %43, i32 0, i32 1
  %45 = load ptr, ptr %44, align 8, !tbaa !55
  %46 = load i32, ptr %8, align 4, !tbaa !50
  %47 = sext i32 %46 to i64
  %48 = getelementptr inbounds i32, ptr %45, i64 %47
  %49 = load i32, ptr %48, align 4, !tbaa !50
  %50 = load i32, ptr %7, align 4, !tbaa !50
  %51 = add nsw i32 %50, %49
  store i32 %51, ptr %7, align 4, !tbaa !50
  br label %52

52:                                               ; preds = %18
  %53 = load i32, ptr %8, align 4, !tbaa !50
  %54 = add nsw i32 %53, 1
  store i32 %54, ptr %8, align 4, !tbaa !50
  br label %9, !llvm.loop !66

55:                                               ; preds = %17
  %56 = load float, ptr %5, align 4, !tbaa !62
  %57 = load i32, ptr %7, align 4, !tbaa !50
  %58 = sitofp i32 %57 to float
  %59 = fdiv nsz float %56, %58
  %60 = load ptr, ptr %4, align 8, !tbaa !58
  %61 = getelementptr inbounds nuw %struct.ThreadData, ptr %60, i32 0, i32 3
  store float %59, ptr %61, align 4, !tbaa !67
  %62 = load float, ptr %6, align 4, !tbaa !62
  %63 = load i32, ptr %7, align 4, !tbaa !50
  %64 = sitofp i32 %63 to float
  %65 = fdiv nsz float %62, %64
  %66 = load ptr, ptr %4, align 8, !tbaa !58
  %67 = getelementptr inbounds nuw %struct.ThreadData, ptr %66, i32 0, i32 4
  store float %65, ptr %67, align 8, !tbaa !68
  call void @llvm.lifetime.end.p0(i64 4, ptr %7) #6
  call void @llvm.lifetime.end.p0(i64 4, ptr %6) #6
  call void @llvm.lifetime.end.p0(i64 4, ptr %5) #6
  ret void
}

; Function Attrs: nounwind uwtable
define internal i32 @filter_frame(ptr noundef %0, ptr noundef %1) #1 {
  %3 = alloca i32, align 4
  %4 = alloca ptr, align 8
  %5 = alloca ptr, align 8
  %6 = alloca ptr, align 8
  %7 = alloca ptr, align 8
  %8 = alloca ptr, align 8
  %9 = alloca %struct.ThreadData, align 8
  %10 = alloca ptr, align 8
  %11 = alloca i32, align 4
  store ptr %0, ptr %4, align 8, !tbaa !24
  store ptr %1, ptr %5, align 8, !tbaa !26
  call void @llvm.lifetime.start.p0(i64 8, ptr %6) #6
  %12 = load ptr, ptr %4, align 8, !tbaa !24
  %13 = getelementptr inbounds nuw %struct.AVFilterLink, ptr %12, i32 0, i32 2
  %14 = load ptr, ptr %13, align 8, !tbaa !28
  store ptr %14, ptr %6, align 8, !tbaa !4
  call void @llvm.lifetime.start.p0(i64 8, ptr %7) #6
  %15 = load ptr, ptr %6, align 8, !tbaa !4
  %16 = getelementptr inbounds nuw %struct.AVFilterContext, ptr %15, i32 0, i32 9
  %17 = load ptr, ptr %16, align 8, !tbaa !9
  store ptr %17, ptr %7, align 8, !tbaa !22
  call void @llvm.lifetime.start.p0(i64 8, ptr %8) #6
  %18 = load ptr, ptr %6, align 8, !tbaa !4
  %19 = getelementptr inbounds nuw %struct.AVFilterContext, ptr %18, i32 0, i32 7
  %20 = load ptr, ptr %19, align 8, !tbaa !36
  %21 = getelementptr inbounds ptr, ptr %20, i64 0
  %22 = load ptr, ptr %21, align 8, !tbaa !24
  store ptr %22, ptr %8, align 8, !tbaa !24
  call void @llvm.lifetime.start.p0(i64 32, ptr %9) #6
  call void @llvm.lifetime.start.p0(i64 8, ptr %10) #6
  %23 = load ptr, ptr %5, align 8, !tbaa !26
  %24 = call i32 @av_frame_is_writable(ptr noundef %23)
  %25 = icmp ne i32 %24, 0
  br i1 %25, label %26, label %28

26:                                               ; preds = %2
  %27 = load ptr, ptr %5, align 8, !tbaa !26
  store ptr %27, ptr %10, align 8, !tbaa !26
  br label %44

28:                                               ; preds = %2
  %29 = load ptr, ptr %8, align 8, !tbaa !24
  %30 = load ptr, ptr %8, align 8, !tbaa !24
  %31 = getelementptr inbounds nuw %struct.AVFilterLink, ptr %30, i32 0, i32 6
  %32 = load i32, ptr %31, align 8, !tbaa !37
  %33 = load ptr, ptr %8, align 8, !tbaa !24
  %34 = getelementptr inbounds nuw %struct.AVFilterLink, ptr %33, i32 0, i32 7
  %35 = load i32, ptr %34, align 4, !tbaa !38
  %36 = call ptr @ff_get_video_buffer(ptr noundef %29, i32 noundef %32, i32 noundef %35)
  store ptr %36, ptr %10, align 8, !tbaa !26
  %37 = load ptr, ptr %10, align 8, !tbaa !26
  %38 = icmp ne ptr %37, null
  br i1 %38, label %40, label %39

39:                                               ; preds = %28
  call void @av_frame_free(ptr noundef %5)
  store i32 -12, ptr %3, align 4
  store i32 1, ptr %11, align 4
  br label %132

40:                                               ; preds = %28
  %41 = load ptr, ptr %10, align 8, !tbaa !26
  %42 = load ptr, ptr %5, align 8, !tbaa !26
  %43 = call i32 @av_frame_copy_props(ptr noundef %41, ptr noundef %42)
  br label %44

44:                                               ; preds = %40, %26
  %45 = load ptr, ptr %5, align 8, !tbaa !26
  %46 = getelementptr inbounds nuw %struct.AVFrame, ptr %45, i32 0, i32 24
  %47 = load i32, ptr %46, align 8, !tbaa !39
  %48 = icmp eq i32 %47, 2
  br i1 %48, label %49, label %53

49:                                               ; preds = %44
  %50 = load ptr, ptr %6, align 8, !tbaa !4
  call void (ptr, i32, ptr, ...) @av_log(ptr noundef %50, i32 noundef 24, ptr noundef @.str.3)
  %51 = load ptr, ptr %10, align 8, !tbaa !26
  %52 = getelementptr inbounds nuw %struct.AVFrame, ptr %51, i32 0, i32 24
  store i32 8, ptr %52, align 8, !tbaa !39
  br label %61

53:                                               ; preds = %44
  %54 = load ptr, ptr %5, align 8, !tbaa !26
  %55 = getelementptr inbounds nuw %struct.AVFrame, ptr %54, i32 0, i32 24
  %56 = load i32, ptr %55, align 8, !tbaa !39
  %57 = icmp ne i32 %56, 8
  br i1 %57, label %58, label %60

58:                                               ; preds = %53
  %59 = load ptr, ptr %6, align 8, !tbaa !4
  call void (ptr, i32, ptr, ...) @av_log(ptr noundef %59, i32 noundef 24, ptr noundef @.str.4)
  br label %60

60:                                               ; preds = %58, %53
  br label %61

61:                                               ; preds = %60, %49
  %62 = load ptr, ptr %5, align 8, !tbaa !26
  %63 = getelementptr inbounds nuw %struct.ThreadData, ptr %9, i32 0, i32 0
  store ptr %62, ptr %63, align 8, !tbaa !45
  %64 = load ptr, ptr %10, align 8, !tbaa !26
  %65 = getelementptr inbounds nuw %struct.ThreadData, ptr %9, i32 0, i32 1
  store ptr %64, ptr %65, align 8, !tbaa !48
  %66 = load ptr, ptr %6, align 8, !tbaa !4
  %67 = load ptr, ptr %8, align 8, !tbaa !24
  %68 = getelementptr inbounds nuw %struct.AVFilterLink, ptr %67, i32 0, i32 7
  %69 = load i32, ptr %68, align 4, !tbaa !38
  %70 = load ptr, ptr %6, align 8, !tbaa !4
  %71 = call i32 @ff_filter_get_nb_threads(ptr noundef %70) #7
  %72 = icmp sgt i32 %69, %71
  br i1 %72, label %73, label %76

73:                                               ; preds = %61
  %74 = load ptr, ptr %6, align 8, !tbaa !4
  %75 = call i32 @ff_filter_get_nb_threads(ptr noundef %74) #7
  br label %80

76:                                               ; preds = %61
  %77 = load ptr, ptr %8, align 8, !tbaa !24
  %78 = getelementptr inbounds nuw %struct.AVFilterLink, ptr %77, i32 0, i32 7
  %79 = load i32, ptr %78, align 4, !tbaa !38
  br label %80

80:                                               ; preds = %76, %73
  %81 = phi i32 [ %75, %73 ], [ %79, %76 ]
  %82 = call i32 @ff_filter_execute(ptr noundef %66, ptr noundef @convert_frame, ptr noundef %9, ptr noundef null, i32 noundef %81)
  %83 = load ptr, ptr %7, align 8, !tbaa !22
  call void @compute_correction(ptr noundef %83, ptr noundef %9)
  %84 = load ptr, ptr %6, align 8, !tbaa !4
  %85 = load ptr, ptr %8, align 8, !tbaa !24
  %86 = getelementptr inbounds nuw %struct.AVFilterLink, ptr %85, i32 0, i32 7
  %87 = load i32, ptr %86, align 4, !tbaa !38
  %88 = load ptr, ptr %6, align 8, !tbaa !4
  %89 = call i32 @ff_filter_get_nb_threads(ptr noundef %88) #7
  %90 = icmp sgt i32 %87, %89
  br i1 %90, label %91, label %94

91:                                               ; preds = %80
  %92 = load ptr, ptr %6, align 8, !tbaa !4
  %93 = call i32 @ff_filter_get_nb_threads(ptr noundef %92) #7
  br label %98

94:                                               ; preds = %80
  %95 = load ptr, ptr %8, align 8, !tbaa !24
  %96 = getelementptr inbounds nuw %struct.AVFilterLink, ptr %95, i32 0, i32 7
  %97 = load i32, ptr %96, align 4, !tbaa !38
  br label %98

98:                                               ; preds = %94, %91
  %99 = phi i32 [ %93, %91 ], [ %97, %94 ]
  %100 = call i32 @ff_filter_execute(ptr noundef %84, ptr noundef @correct_frame, ptr noundef %9, ptr noundef null, i32 noundef %99)
  %101 = load ptr, ptr %5, align 8, !tbaa !26
  %102 = load ptr, ptr %10, align 8, !tbaa !26
  %103 = icmp ne ptr %101, %102
  br i1 %103, label %104, label %128

104:                                              ; preds = %98
  %105 = load ptr, ptr %10, align 8, !tbaa !26
  %106 = getelementptr inbounds nuw %struct.AVFrame, ptr %105, i32 0, i32 0
  %107 = getelementptr inbounds [8 x ptr], ptr %106, i64 0, i64 3
  %108 = load ptr, ptr %107, align 8, !tbaa !49
  %109 = load ptr, ptr %10, align 8, !tbaa !26
  %110 = getelementptr inbounds nuw %struct.AVFrame, ptr %109, i32 0, i32 1
  %111 = getelementptr inbounds [8 x i32], ptr %110, i64 0, i64 3
  %112 = load i32, ptr %111, align 4, !tbaa !50
  %113 = load ptr, ptr %5, align 8, !tbaa !26
  %114 = getelementptr inbounds nuw %struct.AVFrame, ptr %113, i32 0, i32 0
  %115 = getelementptr inbounds [8 x ptr], ptr %114, i64 0, i64 3
  %116 = load ptr, ptr %115, align 8, !tbaa !49
  %117 = load ptr, ptr %5, align 8, !tbaa !26
  %118 = getelementptr inbounds nuw %struct.AVFrame, ptr %117, i32 0, i32 1
  %119 = getelementptr inbounds [8 x i32], ptr %118, i64 0, i64 3
  %120 = load i32, ptr %119, align 4, !tbaa !50
  %121 = load ptr, ptr %8, align 8, !tbaa !24
  %122 = getelementptr inbounds nuw %struct.AVFilterLink, ptr %121, i32 0, i32 6
  %123 = load i32, ptr %122, align 8, !tbaa !37
  %124 = mul nsw i32 %123, 4
  %125 = load ptr, ptr %8, align 8, !tbaa !24
  %126 = getelementptr inbounds nuw %struct.AVFilterLink, ptr %125, i32 0, i32 7
  %127 = load i32, ptr %126, align 4, !tbaa !38
  call void @av_image_copy_plane(ptr noundef %108, i32 noundef %112, ptr noundef %116, i32 noundef %120, i32 noundef %124, i32 noundef %127)
  call void @av_frame_free(ptr noundef %5)
  br label %128

128:                                              ; preds = %104, %98
  %129 = load ptr, ptr %8, align 8, !tbaa !24
  %130 = load ptr, ptr %10, align 8, !tbaa !26
  %131 = call i32 @ff_filter_frame(ptr noundef %129, ptr noundef %130)
  store i32 %131, ptr %3, align 4
  store i32 1, ptr %11, align 4
  br label %132

132:                                              ; preds = %128, %39
  call void @llvm.lifetime.end.p0(i64 8, ptr %10) #6
  call void @llvm.lifetime.end.p0(i64 32, ptr %9) #6
  call void @llvm.lifetime.end.p0(i64 8, ptr %8) #6
  call void @llvm.lifetime.end.p0(i64 8, ptr %7) #6
  call void @llvm.lifetime.end.p0(i64 8, ptr %6) #6
  %133 = load i32, ptr %3, align 4
  ret i32 %133
}