; Function Attrs: nounwind uwtable
define internal i32 @filter_frame(ptr noundef readonly captures(none) %0, ptr noundef %1) #1 {
  %3 = alloca ptr, align 8
  %4 = alloca %struct.ThreadData, align 8
  store ptr %1, ptr %3, align 8, !tbaa !20
  %5 = getelementptr inbounds nuw i8, ptr %0, i64 16
  %6 = load ptr, ptr %5, align 8, !tbaa !22
  %7 = getelementptr inbounds nuw i8, ptr %6, i64 72
  %8 = load ptr, ptr %7, align 8, !tbaa !4
  %9 = getelementptr inbounds nuw i8, ptr %6, i64 56
  %10 = load ptr, ptr %9, align 8, !tbaa !31
  %11 = load ptr, ptr %10, align 8, !tbaa !32
  call void @llvm.lifetime.start.p0(i64 32, ptr nonnull %4) #8
  %12 = tail call i32 @av_frame_is_writable(ptr noundef %1) #8
  %.not = icmp eq i32 %12, 0
  br i1 %.not, label %13, label %22

13:                                               ; preds = %2
  %14 = getelementptr inbounds nuw i8, ptr %11, i64 40
  %15 = load i32, ptr %14, align 8, !tbaa !34
  %16 = getelementptr inbounds nuw i8, ptr %11, i64 44
  %17 = load i32, ptr %16, align 4, !tbaa !35
  %18 = tail call ptr @ff_get_video_buffer(ptr noundef %11, i32 noundef %15, i32 noundef %17) #8
  %.not38 = icmp eq ptr %18, null
  br i1 %.not38, label %19, label %20

19:                                               ; preds = %13
  call void @av_frame_free(ptr noundef nonnull %3) #8
  br label %77

20:                                               ; preds = %13
  %21 = tail call i32 @av_frame_copy_props(ptr noundef nonnull %18, ptr noundef %1) #8
  br label %22

22:                                               ; preds = %2, %20
  %.0 = phi ptr [ %18, %20 ], [ %1, %2 ]
  %23 = getelementptr inbounds nuw i8, ptr %1, i64 288
  %24 = load i32, ptr %23, align 8, !tbaa !36
  switch i32 %24, label %27 [
    i32 2, label %25
    i32 8, label %28
  ]

25:                                               ; preds = %22
  tail call void (ptr, i32, ptr, ...) @av_log(ptr noundef nonnull %6, i32 noundef 24, ptr noundef nonnull @.str.3) #8
  %26 = getelementptr inbounds nuw i8, ptr %.0, i64 288
  store i32 8, ptr %26, align 8, !tbaa !36
  br label %28

27:                                               ; preds = %22
  tail call void (ptr, i32, ptr, ...) @av_log(ptr noundef nonnull %6, i32 noundef 24, ptr noundef nonnull @.str.4) #8
  br label %28

28:                                               ; preds = %22, %27, %25
  store ptr %1, ptr %4, align 8, !tbaa !42
  %29 = getelementptr inbounds nuw i8, ptr %4, i64 8
  store ptr %.0, ptr %29, align 8, !tbaa !45
  %30 = getelementptr inbounds nuw i8, ptr %11, i64 44
  %31 = load i32, ptr %30, align 4, !tbaa !35
  %32 = tail call i32 @ff_filter_get_nb_threads(ptr noundef nonnull %6) #9
  %. = tail call i32 @llvm.smin.i32(i32 %31, i32 %32)
  %33 = call i32 @ff_filter_execute(ptr noundef nonnull %6, ptr noundef nonnull @convert_frame, ptr noundef nonnull %4, ptr noundef null, i32 noundef %.) #8
  %34 = load ptr, ptr %29, align 8, !tbaa !45
  %35 = getelementptr inbounds nuw i8, ptr %34, i64 108
  %36 = load i32, ptr %35, align 4, !tbaa !46
  %37 = icmp sgt i32 %36, 0
  br i1 %37, label %.lr.ph.i, label %compute_correction.exit

.lr.ph.i:                                         ; preds = %28
  %38 = getelementptr inbounds nuw i8, ptr %8, i64 16
  %39 = load ptr, ptr %38, align 8, !tbaa !47
  %40 = getelementptr inbounds nuw i8, ptr %8, i64 8
  %41 = load ptr, ptr %40, align 8, !tbaa !51
  %42 = zext nneg i32 %36 to i64
  %invariant.gep.i = getelementptr inbounds nuw float, ptr %39, i64 %42
  br label %44

._crit_edge.loopexit.i:                           ; preds = %44
  %43 = sitofp i32 %52 to float
  br label %compute_correction.exit

44:                                               ; preds = %44, %.lr.ph.i
  %indvars.iv.i = phi i64 [ 0, %.lr.ph.i ], [ %indvars.iv.next.i, %44 ]
  %.01824.i = phi i32 [ 0, %.lr.ph.i ], [ %52, %44 ]
  %.01923.i = phi float [ 0.000000e+00, %.lr.ph.i ], [ %49, %44 ]
  %.02022.i = phi float [ 0.000000e+00, %.lr.ph.i ], [ %47, %44 ]
  %45 = getelementptr inbounds nuw float, ptr %39, i64 %indvars.iv.i
  %46 = load float, ptr %45, align 4, !tbaa !52
  %47 = fadd nsz float %.02022.i, %46
  %gep.i = getelementptr inbounds nuw float, ptr %invariant.gep.i, i64 %indvars.iv.i
  %48 = load float, ptr %gep.i, align 4, !tbaa !52
  %49 = fadd nsz float %.01923.i, %48
  %50 = getelementptr inbounds nuw i32, ptr %41, i64 %indvars.iv.i
  %51 = load i32, ptr %50, align 4, !tbaa !53
  %52 = add nsw i32 %51, %.01824.i
  %indvars.iv.next.i = add nuw nsw i64 %indvars.iv.i, 1
  %exitcond.not.i = icmp eq i64 %indvars.iv.next.i, %42
  br i1 %exitcond.not.i, label %._crit_edge.loopexit.i, label %44, !llvm.loop !54

compute_correction.exit:                          ; preds = %28, %._crit_edge.loopexit.i
  %.020.lcssa.i = phi float [ 0.000000e+00, %28 ], [ %47, %._crit_edge.loopexit.i ]
  %.019.lcssa.i = phi float [ 0.000000e+00, %28 ], [ %49, %._crit_edge.loopexit.i ]
  %.018.lcssa.i = phi float [ 0.000000e+00, %28 ], [ %43, %._crit_edge.loopexit.i ]
  %53 = fdiv nsz float %.020.lcssa.i, %.018.lcssa.i
  %54 = getelementptr inbounds nuw i8, ptr %4, i64 20
  store float %53, ptr %54, align 4, !tbaa !56
  %55 = fdiv nsz float %.019.lcssa.i, %.018.lcssa.i
  %56 = getelementptr inbounds nuw i8, ptr %4, i64 24
  store float %55, ptr %56, align 8, !tbaa !57
  %57 = load i32, ptr %30, align 4, !tbaa !35
  %58 = call i32 @ff_filter_get_nb_threads(ptr noundef nonnull %6) #9
  %59 = call i32 @llvm.smin.i32(i32 %57, i32 %58)
  %60 = call i32 @ff_filter_execute(ptr noundef nonnull %6, ptr noundef nonnull @correct_frame, ptr noundef nonnull %4, ptr noundef null, i32 noundef %59) #8
  %61 = load ptr, ptr %3, align 8, !tbaa !20
  %.not40 = icmp eq ptr %61, %.0
  br i1 %.not40, label %75, label %62

62:                                               ; preds = %compute_correction.exit
  %63 = getelementptr inbounds nuw i8, ptr %.0, i64 24
  %64 = load ptr, ptr %63, align 8, !tbaa !58
  %65 = getelementptr inbounds nuw i8, ptr %.0, i64 76
  %66 = load i32, ptr %65, align 4, !tbaa !53
  %67 = getelementptr inbounds nuw i8, ptr %61, i64 24
  %68 = load ptr, ptr %67, align 8, !tbaa !58
  %69 = getelementptr inbounds nuw i8, ptr %61, i64 76
  %70 = load i32, ptr %69, align 4, !tbaa !53
  %71 = getelementptr inbounds nuw i8, ptr %11, i64 40
  %72 = load i32, ptr %71, align 8, !tbaa !34
  %73 = shl nsw i32 %72, 2
  %74 = load i32, ptr %30, align 4, !tbaa !35
  call void @av_image_copy_plane(ptr noundef %64, i32 noundef %66, ptr noundef %68, i32 noundef %70, i32 noundef %73, i32 noundef %74) #8
  call void @av_frame_free(ptr noundef nonnull %3) #8
  br label %75

75:                                               ; preds = %62, %compute_correction.exit
  %76 = call i32 @ff_filter_frame(ptr noundef nonnull %11, ptr noundef %.0) #8
  br label %77

77:                                               ; preds = %75, %19
  %.030 = phi i32 [ %76, %75 ], [ -12, %19 ]
  call void @llvm.lifetime.end.p0(i64 32, ptr nonnull %4) #8
  ret i32 %.030
}